target datalayout = "e-m:e-p270:32:32-p271:32:32-p272:64:64-i64:64-i128:128-f80:128-n8:16:32:64-S128"
target triple = "x86_64-unknown-linux-gnu"

module asm ".section \22.export_symbol\22,\22a\22 ; __export_symbol_dump_stack_lvl: ; .asciz \22\22 ; .asciz \22\22 ; .balign 8 ; .quad dump_stack_lvl ; .previous"
module asm ".section \22.export_symbol\22,\22a\22 ; __export_symbol_dump_stack: ; .asciz \22\22 ; .asciz \22\22 ; .balign 8 ; .quad dump_stack ; .previous"

%struct.pcpu_hot = type { %union.anon }
%union.anon = type { %struct.anon, [16 x i8] }
%struct.anon = type { ptr, i32, i32, i64, i64, ptr, i16, i8 }
%struct.uts_namespace = type { %struct.new_utsname, ptr, ptr, %struct.ns_common }
%struct.new_utsname = type { [65 x i8], [65 x i8], [65 x i8], [65 x i8], [65 x i8], [65 x i8] }
%struct.ns_common = type { %struct.atomic64_t, ptr, i32, %struct.refcount_struct }
%struct.atomic64_t = type { i64 }
%struct.refcount_struct = type { %struct.atomic_t }
%struct.atomic_t = type { i32 }
%struct.__va_list_tag = type { i32, i32, ptr, ptr }

@dump_stack_arch_desc_str = internal global [128 x i8] zeroinitializer, align 16
@.str = private unnamed_addr constant [46 x i8] c"%sCPU: %d PID: %d Comm: %.20s %s%s %s %.*s%s\0A\00", align 1
@pcpu_hot = external dso_local global %struct.pcpu_hot, section ".data..percpu..shared_aligned", align 64
@.str.1 = private unnamed_addr constant [15 x i8] c"Kdump: loaded \00", align 1
@.str.2 = private unnamed_addr constant [1 x i8] zeroinitializer, align 1
@.str.3 = private unnamed_addr constant [2 x i8] c" \00", align 1
@.str.4 = private unnamed_addr constant [21 x i8] c"%sHardware name: %s\0A\00", align 1
@__UNIQUE_ID___addressable_dump_stack_lvl381 = internal global ptr @dump_stack_lvl, section ".discard.addressable", align 8
@__UNIQUE_ID___addressable_dump_stack382 = internal global ptr @dump_stack, section ".discard.addressable", align 8
@init_uts_ns = external dso_local global %struct.uts_namespace, align 8
@llvm.compiler.used = appending global [2 x ptr] [ptr @__UNIQUE_ID___addressable_dump_stack382, ptr @__UNIQUE_ID___addressable_dump_stack_lvl381], section "llvm.metadata"

; Function Attrs: cold fn_ret_thunk_extern nofree nounwind null_pointer_is_valid optsize
define dso_local void @dump_stack_set_arch_desc(ptr nocapture noundef readonly %0, ...) local_unnamed_addr #0 section ".init.text" align 16 {
  %2 = alloca [1 x %struct.__va_list_tag], align 16
  call void @llvm.lifetime.start.p0(i64 24, ptr nonnull %2) #10
  call void @llvm.memset.p0.i64(ptr noundef nonnull align 16 dereferenceable(24) %2, i8 0, i64 24, i1 false), !annotation !5
  call void @llvm.va_start(ptr nonnull %2)
  %3 = call i32 @vsnprintf(ptr noundef nonnull @dump_stack_arch_desc_str, i64 noundef 128, ptr noundef %0, ptr noundef nonnull %2) #10
  call void @llvm.va_end(ptr %2)
  call void @llvm.lifetime.end.p0(i64 24, ptr nonnull %2) #10
  ret void
}

; Function Attrs: nocallback nofree nosync nounwind willreturn memory(argmem: readwrite)
declare void @llvm.lifetime.start.p0(i64 immarg, ptr nocapture) #1

; Function Attrs: nocallback nofree nounwind willreturn memory(argmem: write)
declare void @llvm.memset.p0.i64(ptr nocapture writeonly, i8, i64, i1 immarg) #2

; Function Attrs: nocallback nofree nosync nounwind willreturn
declare void @llvm.va_start(ptr) #3

; Function Attrs: nofree nounwind null_pointer_is_valid
declare dso_local noundef i32 @vsnprintf(ptr nocapture noundef, i64 noundef, ptr nocapture noundef readonly, ptr noundef) local_unnamed_addr #4

; Function Attrs: nocallback nofree nosync nounwind willreturn
declare void @llvm.va_end(ptr) #3

; Function Attrs: nocallback nofree nosync nounwind willreturn memory(argmem: readwrite)
declare void @llvm.lifetime.end.p0(i64 immarg, ptr nocapture) #1

; Function Attrs: fn_ret_thunk_extern nounwind null_pointer_is_valid
define dso_local void @dump_stack_print_info(ptr noundef %0) local_unnamed_addr #5 align 16 {
  %2 = tail call i32 asm sideeffect "movl %gs:$1, $0", "=r,*m,~{dirflag},~{fpsr},~{flags}"(ptr nonnull elementtype(i32) getelementptr inbounds (%struct.pcpu_hot, ptr @pcpu_hot, i64 0, i32 0, i32 0, i32 2)) #10, !srcloc !6
  %3 = tail call i64 asm "movq %gs:${1:P}, $0", "=r,p,~{dirflag},~{fpsr},~{flags}"(ptr nonnull @pcpu_hot) #11, !srcloc !7
  %4 = inttoptr i64 %3 to ptr
  %5 = getelementptr inbounds i8, ptr %4, i64 1320
  %6 = load i32, ptr %5, align 8
  %7 = getelementptr inbounds i8, ptr %4, i64 1800
  %8 = tail call i32 @kexec_crash_loaded() #10
  %9 = icmp eq i32 %8, 0
  %10 = select i1 %9, ptr @.str.2, ptr @.str.1
  %11 = tail call ptr @print_tainted() #10
  %12 = tail call i64 @strcspn(ptr noundef nonnull getelementptr inbounds (%struct.uts_namespace, ptr @init_uts_ns, i64 0, i32 0, i32 3), ptr noundef nonnull @.str.3)
  %13 = trunc i64 %12 to i32
  %14 = tail call i32 (ptr, ...) @_printk(ptr noundef nonnull @.str, ptr noundef %0, i32 noundef %2, i32 noundef %6, ptr noundef %7, ptr noundef nonnull %10, ptr noundef %11, ptr noundef nonnull getelementptr inbounds (%struct.uts_namespace, ptr @init_uts_ns, i64 0, i32 0, i32 2), i32 noundef %13, ptr noundef nonnull getelementptr inbounds (%struct.uts_namespace, ptr @init_uts_ns, i64 0, i32 0, i32 3), ptr noundef nonnull @.str.2) #12
  %15 = load i8, ptr @dump_stack_arch_desc_str, align 16
  %16 = icmp eq i8 %15, 0
  br i1 %16, label %19, label %17

17:                                               ; preds = %1
  %18 = tail call i32 (ptr, ...) @_printk(ptr noundef nonnull @.str.4, ptr noundef %0, ptr noundef nonnull @dump_stack_arch_desc_str) #12
  br label %19

19:                                               ; preds = %17, %1
  tail call void @print_worker_info(ptr noundef %0, ptr noundef %4) #10
  tail call void @print_stop_info(ptr noundef %0, ptr noundef %4) #10
  ret void
}

; Function Attrs: cold null_pointer_is_valid
declare dso_local i32 @_printk(ptr noundef, ...) local_unnamed_addr #6

; Function Attrs: null_pointer_is_valid
declare dso_local i32 @kexec_crash_loaded() local_unnamed_addr #7

; Function Attrs: null_pointer_is_valid
declare dso_local ptr @print_tainted() local_unnamed_addr #7

; Function Attrs: mustprogress nofree nounwind null_pointer_is_valid willreturn memory(argmem: read)
declare dso_local i64 @strcspn(ptr nocapture noundef, ptr nocapture noundef) local_unnamed_addr #8

; Function Attrs: null_pointer_is_valid
declare dso_local void @print_worker_info(ptr noundef, ptr noundef) local_unnamed_addr #7

; Function Attrs: null_pointer_is_valid
declare dso_local void @print_stop_info(ptr noundef, ptr noundef) local_unnamed_addr #7

; Function Attrs: fn_ret_thunk_extern nounwind null_pointer_is_valid
define dso_local void @show_regs_print_info(ptr noundef %0) local_unnamed_addr #5 align 16 {
  tail call void @dump_stack_print_info(ptr noundef %0)
  ret void
}

; Function Attrs: cold fn_ret_thunk_extern nounwind null_pointer_is_valid optsize
define dso_local void @dump_stack_lvl(ptr noundef %0) #9 align 16 {
  %2 = alloca i64, align 8
  call void @llvm.lifetime.start.p0(i64 8, ptr nonnull %2) #10
  store i64 0, ptr %2, align 8, !annotation !5
  call void asm sideeffect "# __raw_save_flags\0A\09pushf ; pop $0", "=*rm,~{memory},~{dirflag},~{fpsr},~{flags}"(ptr nonnull elementtype(i64) %2) #10, !srcloc !8
  %3 = load i64, ptr %2, align 8
  call void @llvm.lifetime.end.p0(i64 8, ptr nonnull %2) #10
  call void asm sideeffect "cli", "~{memory},~{dirflag},~{fpsr},~{flags}"() #10, !srcloc !9
  %4 = call i32 @__printk_cpu_sync_try_get() #10
  %5 = icmp eq i32 %4, 0
  br i1 %5, label %6, label %15

6:                                                ; preds = %11, %1
  %7 = phi i64 [ %12, %11 ], [ %3, %1 ]
  %8 = and i64 %7, 512
  %9 = icmp eq i64 %8, 0
  br i1 %9, label %11, label %10

10:                                               ; preds = %6
  call void asm sideeffect "sti", "~{memory},~{dirflag},~{fpsr},~{flags}"() #10, !srcloc !10
  br label %11

11:                                               ; preds = %10, %6
  call void @__printk_cpu_sync_wait() #10
  call void @llvm.lifetime.start.p0(i64 8, ptr nonnull %2) #10
  store i64 0, ptr %2, align 8, !annotation !5
  call void asm sideeffect "# __raw_save_flags\0A\09pushf ; pop $0", "=*rm,~{memory},~{dirflag},~{fpsr},~{flags}"(ptr nonnull elementtype(i64) %2) #10, !srcloc !8
  %12 = load i64, ptr %2, align 8
  call void @llvm.lifetime.end.p0(i64 8, ptr nonnull %2) #10
  call void asm sideeffect "cli", "~{memory},~{dirflag},~{fpsr},~{flags}"() #10, !srcloc !9
  %13 = call i32 @__printk_cpu_sync_try_get() #10
  %14 = icmp eq i32 %13, 0
  br i1 %14, label %6, label %15, !llvm.loop !11

15:                                               ; preds = %11, %1
  %16 = phi i64 [ %3, %1 ], [ %12, %11 ]
  call void @dump_stack_print_info(ptr noundef %0)
  call void @show_stack(ptr noundef null, ptr noundef null, ptr noundef %0) #10
  call void @__printk_cpu_sync_put() #10
  %17 = and i64 %16, 512
  %18 = icmp eq i64 %17, 0
  br i1 %18, label %20, label %19

19:                                               ; preds = %15
  call void asm sideeffect "sti", "~{memory},~{dirflag},~{fpsr},~{flags}"() #10, !srcloc !10
  br label %20

20:                                               ; preds = %19, %15
  ret void
}

; Function Attrs: null_pointer_is_valid
declare dso_local i32 @__printk_cpu_sync_try_get() local_unnamed_addr #7

; Function Attrs: null_pointer_is_valid
declare dso_local void @__printk_cpu_sync_wait() local_unnamed_addr #7

; Function Attrs: null_pointer_is_valid
declare dso_local void @__printk_cpu_sync_put() local_unnamed_addr #7

; Function Attrs: cold fn_ret_thunk_extern nounwind null_pointer_is_valid optsize
define dso_local void @dump_stack() #9 align 16 {
  tail call void @dump_stack_lvl(ptr noundef nonnull @.str.2) #13
  ret void
}

; Function Attrs: null_pointer_is_valid
declare dso_local void @show_stack(ptr noundef, ptr noundef, ptr noundef) local_unnamed_addr #7


!llvm.module.flags = !{!0, !1, !2, !3, !4}

!0 = !{i32 1, !"wchar_size", i32 2}
!1 = !{i32 8, !"cf-protection-branch", i32 1}
!2 = !{i32 4, !"function_return_thunk_extern", i32 1}
!3 = !{i32 4, !"indirect_branch_cs_prefix", i32 1}
!4 = !{i32 4, !"SkipRaxSetup", i32 1}
!5 = !{!"auto-init"}
!6 = !{i64 2155025547}
!7 = !{i64 2148189707}
!8 = !{i64 1783804, i64 1783825}
!9 = !{i64 1784008}
!10 = !{i64 1784100}
!11 = distinct !{!11, !12}
!12 = !{!"llvm.loop.unroll.disable"}
